; Function Attrs: mustprogress nounwind uwtable
define void @_ZN19OpenColorIO_v2_5dev10ColorSpaceD2Ev(ptr noundef nonnull align 8 captures(none) dereferenceable(8) %0) unnamed_addr #3 align 2 {
  %2 = load ptr, ptr %0, align 8, !tbaa !52
  %3 = icmp eq ptr %2, null
  br i1 %3, label %5, label %4

4:                                                ; preds = %1
  tail call void @_ZN19OpenColorIO_v2_5dev10ColorSpace4ImplD2Ev(ptr noundef nonnull align 8 dereferenceable(296) %2) #23
  tail call void @_ZdlPvm(ptr noundef nonnull %2, i64 noundef 296) #24
  br label %5

5:                                                ; preds = %4, %1
  store ptr null, ptr %0, align 8, !tbaa !52
  ret void
}